target datalayout = "e-m:e-p270:32:32-p271:32:32-p272:64:64-i64:64-i128:128-f80:128-n8:16:32:64-S128"
target triple = "x86_64-pc-linux-gnu"

%struct.lv_ll_t = type { i32, ptr, ptr }
%struct._lv_spangroup_t = type { %struct._lv_obj_t, i32, i32, i32, i32, %struct.lv_ll_t, i8 }
%struct._lv_obj_t = type { ptr, ptr, ptr, ptr, ptr, %struct.lv_area_t, i32, i16, i16 }
%struct.lv_area_t = type { i32, i32, i32, i32 }
%union.lv_style_value_t = type { ptr }

; Function Attrs: nounwind uwtable
define internal void @refresh_self_size(ptr noundef %0) #0 {
  %2 = alloca ptr, align 8
  %3 = alloca ptr, align 8
  store ptr %0, ptr %2, align 8, !tbaa !3
  call void @llvm.lifetime.start.p0(i64 8, ptr %3) #6
  %4 = load ptr, ptr %2, align 8, !tbaa !3
  store ptr %4, ptr %3, align 8, !tbaa !3
  %5 = load ptr, ptr %3, align 8, !tbaa !3
  %6 = getelementptr inbounds nuw %struct._lv_spangroup_t, ptr %5, i32 0, i32 6
  %7 = load i8, ptr %6, align 8
  %8 = and i8 %7, -9
  %9 = or i8 %8, 8
  store i8 %9, ptr %6, align 8
  %10 = load ptr, ptr %2, align 8, !tbaa !3
  call void @lv_obj_invalidate(ptr noundef %10)
  %11 = load ptr, ptr %2, align 8, !tbaa !3
  %12 = call zeroext i1 @lv_obj_refresh_self_size(ptr noundef %11)
  call void @llvm.lifetime.end.p0(i64 8, ptr %3) #6
  ret void
}

; Function Attrs: inlinehint nounwind uwtable
define internal i32 @lv_obj_get_style_height(ptr noundef %0, i32 noundef %1) #3 {
  %3 = alloca ptr, align 8
  %4 = alloca i32, align 4
  %5 = alloca %union.lv_style_value_t, align 8
  store ptr %0, ptr %3, align 8, !tbaa !3
  store i32 %1, ptr %4, align 4, !tbaa !23
  call void @llvm.lifetime.start.p0(i64 8, ptr %5) #6
  %6 = load ptr, ptr %3, align 8, !tbaa !3
  %7 = load i32, ptr %4, align 4, !tbaa !23
  %8 = call ptr @lv_obj_get_style_prop(ptr noundef %6, i32 noundef %7, i8 noundef zeroext 2)
  %9 = getelementptr inbounds nuw %union.lv_style_value_t, ptr %5, i32 0, i32 0
  store ptr %8, ptr %9, align 8
  %10 = load i32, ptr %5, align 8, !tbaa !45
  call void @llvm.lifetime.end.p0(i64 8, ptr %5) #6
  ret i32 %10
}

; Function Attrs: inlinehint nounwind uwtable
define internal i32 @lv_obj_get_style_width(ptr noundef %0, i32 noundef %1) #3 {
  %3 = alloca ptr, align 8
  %4 = alloca i32, align 4
  %5 = alloca %union.lv_style_value_t, align 8
  store ptr %0, ptr %3, align 8, !tbaa !3
  store i32 %1, ptr %4, align 4, !tbaa !23
  call void @llvm.lifetime.start.p0(i64 8, ptr %5) #6
  %6 = load ptr, ptr %3, align 8, !tbaa !3
  %7 = load i32, ptr %4, align 4, !tbaa !23
  %8 = call ptr @lv_obj_get_style_prop(ptr noundef %6, i32 noundef %7, i8 noundef zeroext 1)
  %9 = getelementptr inbounds nuw %union.lv_style_value_t, ptr %5, i32 0, i32 0
  store ptr %8, ptr %9, align 8
  %10 = load i32, ptr %5, align 8, !tbaa !45
  call void @llvm.lifetime.end.p0(i64 8, ptr %5) #6
  ret i32 %10
}

; Function Attrs: nounwind uwtable
define void @lv_spangroup_refr_mode(ptr noundef %0) #0 {
  %2 = alloca ptr, align 8
  %3 = alloca ptr, align 8
  %4 = alloca i32, align 4
  %5 = alloca i32, align 4
  store ptr %0, ptr %2, align 8, !tbaa !3
  br label %6

6:                                                ; preds = %1
  br label %7

7:                                                ; preds = %6
  call void @llvm.lifetime.start.p0(i64 8, ptr %3) #6
  %8 = load ptr, ptr %2, align 8, !tbaa !3
  store ptr %8, ptr %3, align 8, !tbaa !3
  %9 = load ptr, ptr %3, align 8, !tbaa !3
  %10 = getelementptr inbounds nuw %struct._lv_spangroup_t, ptr %9, i32 0, i32 6
  %11 = load i8, ptr %10, align 8
  %12 = and i8 %11, 3
  %13 = zext i8 %12 to i32
  %14 = icmp eq i32 %13, 1
  br i1 %14, label %15, label %18

15:                                               ; preds = %7
  %16 = load ptr, ptr %2, align 8, !tbaa !3
  call void @lv_obj_set_width(ptr noundef %16, i32 noundef 1073741823)
  %17 = load ptr, ptr %2, align 8, !tbaa !3
  call void @lv_obj_set_height(ptr noundef %17, i32 noundef 1073741823)
  br label %70

18:                                               ; preds = %7
  %19 = load ptr, ptr %3, align 8, !tbaa !3
  %20 = getelementptr inbounds nuw %struct._lv_spangroup_t, ptr %19, i32 0, i32 6
  %21 = load i8, ptr %20, align 8
  %22 = and i8 %21, 3
  %23 = zext i8 %22 to i32
  %24 = icmp eq i32 %23, 2
  br i1 %24, label %25, label %33

25:                                               ; preds = %18
  %26 = load ptr, ptr %2, align 8, !tbaa !3
  %27 = call i32 @lv_obj_get_style_width(ptr noundef %26, i32 noundef 0)
  %28 = icmp eq i32 %27, 1073741823
  br i1 %28, label %29, label %31

29:                                               ; preds = %25
  %30 = load ptr, ptr %2, align 8, !tbaa !3
  call void @lv_obj_set_width(ptr noundef %30, i32 noundef 100)
  br label %31

31:                                               ; preds = %29, %25
  %32 = load ptr, ptr %2, align 8, !tbaa !3
  call void @lv_obj_set_height(ptr noundef %32, i32 noundef 1073741823)
  br label %69

33:                                               ; preds = %18
  %34 = load ptr, ptr %3, align 8, !tbaa !3
  %35 = getelementptr inbounds nuw %struct._lv_spangroup_t, ptr %34, i32 0, i32 6
  %36 = load i8, ptr %35, align 8
  %37 = and i8 %36, 3
  %38 = zext i8 %37 to i32
  %39 = icmp eq i32 %38, 0
  br i1 %39, label %40, label %68

40:                                               ; preds = %33
  %41 = load ptr, ptr %2, align 8, !tbaa !3
  %42 = call i32 @lv_obj_get_style_width(ptr noundef %41, i32 noundef 0)
  %43 = icmp eq i32 %42, 1073741823
  br i1 %43, label %44, label %46

44:                                               ; preds = %40
  %45 = load ptr, ptr %2, align 8, !tbaa !3
  call void @lv_obj_set_width(ptr noundef %45, i32 noundef 100)
  br label %46

46:                                               ; preds = %44, %40
  %47 = load ptr, ptr %2, align 8, !tbaa !3
  %48 = call i32 @lv_obj_get_style_height(ptr noundef %47, i32 noundef 0)
  %49 = icmp eq i32 %48, 1073741823
  br i1 %49, label %50, label %67

50:                                               ; preds = %46
  call void @llvm.lifetime.start.p0(i64 4, ptr %4) #6
  %51 = load ptr, ptr %2, align 8, !tbaa !3
  %52 = call i32 @lv_obj_get_style_width(ptr noundef %51, i32 noundef 0)
  store i32 %52, ptr %4, align 4, !tbaa !23
  %53 = load i32, ptr %4, align 4, !tbaa !23
  %54 = and i32 %53, 1610612736
  %55 = icmp eq i32 %54, 536870912
  br i1 %55, label %56, label %61

56:                                               ; preds = %50
  %57 = load i32, ptr %4, align 4, !tbaa !23
  %58 = and i32 %57, -1610612737
  %59 = icmp sle i32 %58, 536870910
  br i1 %59, label %60, label %61

60:                                               ; preds = %56
  store i32 100, ptr %4, align 4, !tbaa !23
  br label %61

61:                                               ; preds = %60, %56, %50
  call void @llvm.lifetime.start.p0(i64 4, ptr %5) #6
  %62 = load ptr, ptr %2, align 8, !tbaa !3
  %63 = load i32, ptr %4, align 4, !tbaa !23
  %64 = call i32 @lv_spangroup_get_expand_height(ptr noundef %62, i32 noundef %63)
  store i32 %64, ptr %5, align 4, !tbaa !23
  %65 = load ptr, ptr %2, align 8, !tbaa !3
  %66 = load i32, ptr %5, align 4, !tbaa !23
  call void @lv_obj_set_content_height(ptr noundef %65, i32 noundef %66)
  call void @llvm.lifetime.end.p0(i64 4, ptr %5) #6
  call void @llvm.lifetime.end.p0(i64 4, ptr %4) #6
  br label %67

67:                                               ; preds = %61, %46
  br label %68

68:                                               ; preds = %67, %33
  br label %69

69:                                               ; preds = %68, %31
  br label %70

70:                                               ; preds = %69, %15
  %71 = load ptr, ptr %2, align 8, !tbaa !3
  call void @refresh_self_size(ptr noundef %71)
  call void @llvm.lifetime.end.p0(i64 8, ptr %3) #6
  ret void
}