; Function Attrs: nounwind uwtable
define void @lv_spangroup_refr_mode(ptr noundef %0) local_unnamed_addr #0 {
  %2 = getelementptr inbounds nuw i8, ptr %0, i64 104
  %3 = load i8, ptr %2, align 8
  %4 = and i8 %3, 3
  switch i8 %4, label %default.unreachable [
    i8 1, label %5
    i8 2, label %6
    i8 0, label %13
    i8 3, label %31
  ]

5:                                                ; preds = %1
  tail call void @lv_obj_set_width(ptr noundef nonnull %0, i32 noundef 1073741823) #8
  tail call void @lv_obj_set_height(ptr noundef nonnull %0, i32 noundef 1073741823) #8
  br label %31

6:                                                ; preds = %1
  %7 = tail call ptr @lv_obj_get_style_prop(ptr noundef nonnull %0, i32 noundef 0, i8 noundef zeroext 1) #8
  %8 = ptrtoint ptr %7 to i64
  %9 = and i64 %8, 4294967295
  %10 = icmp eq i64 %9, 1073741823
  br i1 %10, label %11, label %12

11:                                               ; preds = %6
  tail call void @lv_obj_set_width(ptr noundef nonnull %0, i32 noundef 100) #8
  br label %12

12:                                               ; preds = %11, %6
  tail call void @lv_obj_set_height(ptr noundef nonnull %0, i32 noundef 1073741823) #8
  br label %31

13:                                               ; preds = %1
  %14 = tail call ptr @lv_obj_get_style_prop(ptr noundef nonnull %0, i32 noundef 0, i8 noundef zeroext 1) #8
  %15 = ptrtoint ptr %14 to i64
  %16 = and i64 %15, 4294967295
  %17 = icmp eq i64 %16, 1073741823
  br i1 %17, label %18, label %19

18:                                               ; preds = %13
  tail call void @lv_obj_set_width(ptr noundef nonnull %0, i32 noundef 100) #8
  br label %19

19:                                               ; preds = %18, %13
  %20 = tail call ptr @lv_obj_get_style_prop(ptr noundef nonnull %0, i32 noundef 0, i8 noundef zeroext 2) #8
  %21 = ptrtoint ptr %20 to i64
  %22 = and i64 %21, 4294967295
  %23 = icmp eq i64 %22, 1073741823
  br i1 %23, label %24, label %31

24:                                               ; preds = %19
  %25 = tail call ptr @lv_obj_get_style_prop(ptr noundef nonnull %0, i32 noundef 0, i8 noundef zeroext 1) #8
  %26 = ptrtoint ptr %25 to i64
  %.sroa.0.0.extract.trunc.i22 = trunc i64 %26 to i32
  %27 = and i32 %.sroa.0.0.extract.trunc.i22, 1610612736
  %28 = icmp eq i32 %27, 536870912
  %29 = and i32 %.sroa.0.0.extract.trunc.i22, -1610612737
  %.not = icmp eq i32 %29, 536870911
  %spec.store.select = select i1 %.not, i32 %.sroa.0.0.extract.trunc.i22, i32 100
  %.0 = select i1 %28, i32 %spec.store.select, i32 %.sroa.0.0.extract.trunc.i22
  %30 = tail call i32 @lv_spangroup_get_expand_height(ptr noundef nonnull %0, i32 noundef %.0)
  tail call void @lv_obj_set_content_height(ptr noundef nonnull %0, i32 noundef %30) #8
  br label %31

default.unreachable:                              ; preds = %1
  unreachable

31:                                               ; preds = %1, %12, %19, %24, %5
  %32 = load i8, ptr %2, align 8
  %33 = or i8 %32, 8
  store i8 %33, ptr %2, align 8
  tail call void @lv_obj_invalidate(ptr noundef nonnull %0) #8
  %34 = tail call zeroext i1 @lv_obj_refresh_self_size(ptr noundef nonnull %0) #8
  ret void
}